target datalayout = "e-m:e-p270:32:32-p271:32:32-p272:64:64-i64:64-i128:128-f80:128-n8:16:32:64-S128"
target triple = "x86_64-pc-linux-gnu"

%"class.std::__exception_ptr::exception_ptr" = type { ptr }
%"class.std::runtime_error" = type { %"class.std::exception", %"struct.std::__cow_string" }
%"class.std::exception" = type { ptr }
%"struct.std::__cow_string" = type { %union.anon }
%union.anon = type { ptr }
%"class.faiss::FaissException" = type { %"class.std::exception", %"class.std::__cxx11::basic_string" }
%"class.std::__cxx11::basic_string" = type { %"struct.std::__cxx11::basic_string<char>::_Alloc_hider", i64, %union.anon.0 }
%"struct.std::__cxx11::basic_string<char>::_Alloc_hider" = type { ptr }
%union.anon.0 = type { i64, [8 x i8] }

@_ZTIN5faiss14FaissExceptionE = external constant ptr
@_ZTISt9exception = external constant ptr
@.str = private unnamed_addr constant [14 x i8] c"Unknown error\00", align 1
@faiss_last_exception = external thread_local global %"class.std::__exception_ptr::exception_ptr", align 8
@_ZTVSt9exception = available_externally unnamed_addr constant { [5 x ptr] } { [5 x ptr] [ptr null, ptr @_ZTISt9exception, ptr @_ZNSt9exceptionD1Ev, ptr @_ZNSt9exceptionD0Ev, ptr @_ZNKSt9exception4whatEv] }, align 8

; Function Attrs: inlinehint mustprogress nounwind uwtable
define linkonce_odr void @_ZNSt15__exception_ptr13exception_ptr4swapERS0_(ptr noundef nonnull align 8 dereferenceable(8) %0, ptr noundef nonnull align 8 dereferenceable(8) %1) #9 comdat align 2 {
  %3 = alloca ptr, align 8
  %4 = alloca ptr, align 8
  %5 = alloca ptr, align 8
  store ptr %0, ptr %3, align 8, !tbaa !17
  store ptr %1, ptr %4, align 8, !tbaa !17
  %6 = load ptr, ptr %3, align 8
  call void @llvm.lifetime.start.p0(i64 8, ptr %5) #3
  %7 = getelementptr inbounds nuw %"class.std::__exception_ptr::exception_ptr", ptr %6, i32 0, i32 0
  %8 = load ptr, ptr %7, align 8, !tbaa !19
  store ptr %8, ptr %5, align 8, !tbaa !16
  %9 = load ptr, ptr %4, align 8, !tbaa !17
  %10 = getelementptr inbounds nuw %"class.std::__exception_ptr::exception_ptr", ptr %9, i32 0, i32 0
  %11 = load ptr, ptr %10, align 8, !tbaa !19
  %12 = getelementptr inbounds nuw %"class.std::__exception_ptr::exception_ptr", ptr %6, i32 0, i32 0
  store ptr %11, ptr %12, align 8, !tbaa !19
  %13 = load ptr, ptr %5, align 8, !tbaa !16
  %14 = load ptr, ptr %4, align 8, !tbaa !17
  %15 = getelementptr inbounds nuw %"class.std::__exception_ptr::exception_ptr", ptr %14, i32 0, i32 0
  store ptr %13, ptr %15, align 8, !tbaa !19
  call void @llvm.lifetime.end.p0(i64 8, ptr %5) #3
  ret void
}

; Function Attrs: mustprogress nounwind uwtable
define linkonce_odr void @_ZNSt15__exception_ptr13exception_ptrC2EOS0_(ptr noundef nonnull align 8 dereferenceable(8) %0, ptr noundef nonnull align 8 dereferenceable(8) %1) unnamed_addr #7 comdat align 2 {
  %3 = alloca ptr, align 8
  %4 = alloca ptr, align 8
  store ptr %0, ptr %3, align 8, !tbaa !17
  store ptr %1, ptr %4, align 8, !tbaa !17
  %5 = load ptr, ptr %3, align 8
  %6 = getelementptr inbounds nuw %"class.std::__exception_ptr::exception_ptr", ptr %5, i32 0, i32 0
  %7 = load ptr, ptr %4, align 8, !tbaa !17
  %8 = getelementptr inbounds nuw %"class.std::__exception_ptr::exception_ptr", ptr %7, i32 0, i32 0
  %9 = load ptr, ptr %8, align 8, !tbaa !19
  store ptr %9, ptr %6, align 8, !tbaa !19
  %10 = load ptr, ptr %4, align 8, !tbaa !17
  %11 = getelementptr inbounds nuw %"class.std::__exception_ptr::exception_ptr", ptr %10, i32 0, i32 0
  store ptr null, ptr %11, align 8, !tbaa !19
  ret void
}

; Function Attrs: mustprogress nounwind uwtable
define linkonce_odr void @_ZNSt9exceptionC2ERKS_(ptr noundef nonnull align 8 dereferenceable(8) %0, ptr noundef nonnull align 8 dereferenceable(8) %1) unnamed_addr #7 comdat align 2 {
  %3 = alloca ptr, align 8
  %4 = alloca ptr, align 8
  store ptr %0, ptr %3, align 8, !tbaa !12
  store ptr %1, ptr %4, align 8, !tbaa !12
  %5 = load ptr, ptr %3, align 8
  store ptr getelementptr inbounds inrange(-16, 24) ({ [5 x ptr] }, ptr @_ZTVSt9exception, i32 0, i32 0, i32 2), ptr %5, align 8, !tbaa !21
  ret void
}

; Function Attrs: inlinehint mustprogress nounwind uwtable
define linkonce_odr void @_ZNSt15__exception_ptr13exception_ptrD2Ev(ptr noundef nonnull align 8 dereferenceable(8) %0) unnamed_addr #9 comdat align 2 {
  %2 = alloca ptr, align 8
  store ptr %0, ptr %2, align 8, !tbaa !17
  %3 = load ptr, ptr %2, align 8
  %4 = getelementptr inbounds nuw %"class.std::__exception_ptr::exception_ptr", ptr %3, i32 0, i32 0
  %5 = load ptr, ptr %4, align 8, !tbaa !19
  %6 = icmp ne ptr %5, null
  br i1 %6, label %7, label %8

7:                                                ; preds = %1
  call void @_ZNSt15__exception_ptr13exception_ptr10_M_releaseEv(ptr noundef nonnull align 8 dereferenceable(8) %3) #3
  br label %8

8:                                                ; preds = %7, %1
  ret void
}

; Function Attrs: mustprogress nounwind uwtable
define linkonce_odr noundef nonnull align 8 dereferenceable(8) ptr @_ZNSt15__exception_ptr13exception_ptraSEOS0_(ptr noundef nonnull align 8 dereferenceable(8) %0, ptr noundef nonnull align 8 dereferenceable(8) %1) #7 comdat align 2 {
  %3 = alloca ptr, align 8
  %4 = alloca ptr, align 8
  %5 = alloca %"class.std::__exception_ptr::exception_ptr", align 8
  store ptr %0, ptr %3, align 8, !tbaa !17
  store ptr %1, ptr %4, align 8, !tbaa !17
  %6 = load ptr, ptr %3, align 8
  call void @llvm.lifetime.start.p0(i64 8, ptr %5) #3
  %7 = load ptr, ptr %4, align 8, !tbaa !17
  call void @_ZNSt15__exception_ptr13exception_ptrC2EOS0_(ptr noundef nonnull align 8 dereferenceable(8) %5, ptr noundef nonnull align 8 dereferenceable(8) %7) #3
  call void @_ZNSt15__exception_ptr13exception_ptr4swapERS0_(ptr noundef nonnull align 8 dereferenceable(8) %5, ptr noundef nonnull align 8 dereferenceable(8) %6) #3
  call void @_ZNSt15__exception_ptr13exception_ptrD2Ev(ptr noundef nonnull align 8 dereferenceable(8) %5) #3
  call void @llvm.lifetime.end.p0(i64 8, ptr %5) #3
  ret ptr %6
}

; Function Attrs: uwtable
define linkonce_odr hidden noundef ptr @_ZTW20faiss_last_exception() #8 comdat {
  %1 = icmp ne ptr @_ZTH20faiss_last_exception, null
  br i1 %1, label %2, label %3

2:                                                ; preds = %0
  call void @_ZTH20faiss_last_exception()
  br label %3

3:                                                ; preds = %2, %0
  %4 = call align 8 ptr @llvm.threadlocal.address.p0(ptr align 8 @faiss_last_exception)
  ret ptr %4
}

; Function Attrs: mustprogress uwtable
define i32 @faiss_write_index_binary(ptr noundef %0, ptr noundef %1) #4 personality ptr @__gxx_personality_v0 {
  %3 = alloca i32, align 4
  %4 = alloca ptr, align 8
  %5 = alloca ptr, align 8
  %6 = alloca ptr, align 8
  %7 = alloca i32, align 4
  %8 = alloca %"class.std::__exception_ptr::exception_ptr", align 8
  %9 = alloca %"class.std::runtime_error", align 8
  %10 = alloca ptr, align 8
  %11 = alloca %"class.std::__exception_ptr::exception_ptr", align 8
  %12 = alloca %"class.std::exception", align 8
  %13 = alloca ptr, align 8
  %14 = alloca %"class.std::__exception_ptr::exception_ptr", align 8
  %15 = alloca %"class.faiss::FaissException", align 8
  store ptr %0, ptr %4, align 8, !tbaa !31
  store ptr %1, ptr %5, align 8, !tbaa !8
  %16 = load ptr, ptr %4, align 8, !tbaa !31
  %17 = load ptr, ptr %5, align 8, !tbaa !8
  invoke void @_ZN5faiss18write_index_binaryEPKNS_11IndexBinaryEP8_IO_FILE(ptr noundef %16, ptr noundef %17)
          to label %18 unwind label %19

18:                                               ; preds = %2
  br label %59

19:                                               ; preds = %2
  %20 = landingpad { ptr, i32 }
          catch ptr @_ZTIN5faiss14FaissExceptionE
          catch ptr @_ZTISt9exception
          catch ptr null
  %21 = extractvalue { ptr, i32 } %20, 0
  store ptr %21, ptr %6, align 8
  %22 = extractvalue { ptr, i32 } %20, 1
  store i32 %22, ptr %7, align 4
  br label %23

23:                                               ; preds = %19
  %24 = load i32, ptr %7, align 4
  %25 = call i32 @llvm.eh.typeid.for.p0(ptr @_ZTIN5faiss14FaissExceptionE) #3
  %26 = icmp eq i32 %24, %25
  br i1 %26, label %27, label %34

27:                                               ; preds = %23
  call void @llvm.lifetime.start.p0(i64 8, ptr %13) #3
  %28 = load ptr, ptr %6, align 8
  %29 = call ptr @__cxa_begin_catch(ptr %28) #3
  store ptr %29, ptr %13, align 8
  call void @llvm.lifetime.start.p0(i64 8, ptr %14) #3
  %30 = load ptr, ptr %13, align 8, !tbaa !10
  invoke void @_ZN5faiss14FaissExceptionC2ERKS0_(ptr noundef nonnull align 8 dereferenceable(40) %15, ptr noundef nonnull align 8 dereferenceable(40) %30)
          to label %31 unwind label %54

31:                                               ; preds = %27
  call void @_ZSt18make_exception_ptrIN5faiss14FaissExceptionEENSt15__exception_ptr13exception_ptrET_(ptr dead_on_unwind writable sret(%"class.std::__exception_ptr::exception_ptr") align 8 %14, ptr noundef %15) #3
  %32 = call ptr @_ZTW20faiss_last_exception()
  %33 = call noundef nonnull align 8 dereferenceable(8) ptr @_ZNSt15__exception_ptr13exception_ptraSEOS0_(ptr noundef nonnull align 8 dereferenceable(8) %32, ptr noundef nonnull align 8 dereferenceable(8) %14) #3
  call void @_ZNSt15__exception_ptr13exception_ptrD2Ev(ptr noundef nonnull align 8 dereferenceable(8) %14) #3
  call void @_ZN5faiss14FaissExceptionD2Ev(ptr noundef nonnull align 8 dereferenceable(40) %15) #3
  call void @llvm.lifetime.end.p0(i64 8, ptr %14) #3
  store i32 -2, ptr %3, align 4
  call void @__cxa_end_catch()
  call void @llvm.lifetime.end.p0(i64 8, ptr %13) #3
  br label %60

34:                                               ; preds = %23
  %35 = call i32 @llvm.eh.typeid.for.p0(ptr @_ZTISt9exception) #3
  %36 = icmp eq i32 %24, %35
  br i1 %36, label %37, label %43

37:                                               ; preds = %34
  call void @llvm.lifetime.start.p0(i64 8, ptr %10) #3
  %38 = load ptr, ptr %6, align 8
  %39 = call ptr @__cxa_begin_catch(ptr %38) #3
  store ptr %39, ptr %10, align 8
  call void @llvm.lifetime.start.p0(i64 8, ptr %11) #3
  %40 = load ptr, ptr %10, align 8, !tbaa !12
  call void @_ZNSt9exceptionC2ERKS_(ptr noundef nonnull align 8 dereferenceable(8) %12, ptr noundef nonnull align 8 dereferenceable(8) %40) #3
  call void @_ZSt18make_exception_ptrISt9exceptionENSt15__exception_ptr13exception_ptrET_(ptr dead_on_unwind writable sret(%"class.std::__exception_ptr::exception_ptr") align 8 %11, ptr noundef %12) #3
  %41 = call ptr @_ZTW20faiss_last_exception()
  %42 = call noundef nonnull align 8 dereferenceable(8) ptr @_ZNSt15__exception_ptr13exception_ptraSEOS0_(ptr noundef nonnull align 8 dereferenceable(8) %41, ptr noundef nonnull align 8 dereferenceable(8) %11) #3
  call void @_ZNSt15__exception_ptr13exception_ptrD2Ev(ptr noundef nonnull align 8 dereferenceable(8) %11) #3
  call void @_ZNSt9exceptionD1Ev(ptr noundef nonnull align 8 dereferenceable(8) %12) #3
  call void @llvm.lifetime.end.p0(i64 8, ptr %11) #3
  store i32 -4, ptr %3, align 4
  call void @__cxa_end_catch()
  call void @llvm.lifetime.end.p0(i64 8, ptr %10) #3
  br label %60

43:                                               ; preds = %34
  %44 = load ptr, ptr %6, align 8
  %45 = call ptr @__cxa_begin_catch(ptr %44) #3
  call void @llvm.lifetime.start.p0(i64 8, ptr %8) #3
  invoke void @_ZNSt13runtime_errorC1EPKc(ptr noundef nonnull align 8 dereferenceable(16) %9, ptr noundef @.str)
          to label %46 unwind label %49

46:                                               ; preds = %43
  call void @_ZSt18make_exception_ptrISt13runtime_errorENSt15__exception_ptr13exception_ptrET_(ptr dead_on_unwind writable sret(%"class.std::__exception_ptr::exception_ptr") align 8 %8, ptr noundef %9) #3
  %47 = call ptr @_ZTW20faiss_last_exception()
  %48 = call noundef nonnull align 8 dereferenceable(8) ptr @_ZNSt15__exception_ptr13exception_ptraSEOS0_(ptr noundef nonnull align 8 dereferenceable(8) %47, ptr noundef nonnull align 8 dereferenceable(8) %8) #3
  call void @_ZNSt15__exception_ptr13exception_ptrD2Ev(ptr noundef nonnull align 8 dereferenceable(8) %8) #3
  call void @_ZNSt13runtime_errorD1Ev(ptr noundef nonnull align 8 dereferenceable(16) %9) #3
  call void @llvm.lifetime.end.p0(i64 8, ptr %8) #3
  store i32 -1, ptr %3, align 4
  call void @__cxa_end_catch()
  br label %60

49:                                               ; preds = %43
  %50 = landingpad { ptr, i32 }
          cleanup
  %51 = extractvalue { ptr, i32 } %50, 0
  store ptr %51, ptr %6, align 8
  %52 = extractvalue { ptr, i32 } %50, 1
  store i32 %52, ptr %7, align 4
  call void @llvm.lifetime.end.p0(i64 8, ptr %8) #3
  invoke void @__cxa_end_catch()
          to label %53 unwind label %67

53:                                               ; preds = %49
  br label %62

54:                                               ; preds = %27
  %55 = landingpad { ptr, i32 }
          cleanup
  %56 = extractvalue { ptr, i32 } %55, 0
  store ptr %56, ptr %6, align 8
  %57 = extractvalue { ptr, i32 } %55, 1
  store i32 %57, ptr %7, align 4
  call void @llvm.lifetime.end.p0(i64 8, ptr %14) #3
  invoke void @__cxa_end_catch()
          to label %58 unwind label %67

58:                                               ; preds = %54
  call void @llvm.lifetime.end.p0(i64 8, ptr %13) #3
  br label %62

59:                                               ; preds = %18
  store i32 0, ptr %3, align 4
  br label %60

60:                                               ; preds = %59, %31, %37, %46
  %61 = load i32, ptr %3, align 4
  ret i32 %61

62:                                               ; preds = %58, %53
  %63 = load ptr, ptr %6, align 8
  %64 = load i32, ptr %7, align 4
  %65 = insertvalue { ptr, i32 } poison, ptr %63, 0
  %66 = insertvalue { ptr, i32 } %65, i32 %64, 1
  resume { ptr, i32 } %66

67:                                               ; preds = %54, %49
  %68 = landingpad { ptr, i32 }
          catch ptr null
  %69 = extractvalue { ptr, i32 } %68, 0
  call void @__clang_call_terminate(ptr %69) #16
  unreachable
}